; Function Attrs: nounwind uwtable
define ptr @l_Lean_RBNode_fold___rarg(ptr noundef %0, ptr noundef %1, ptr noundef %2) #1 {
  %4 = ptrtoint ptr %0 to i64
  %5 = and i64 %4, 1
  %.not54 = icmp eq i64 %5, 0
  br label %6

6:                                                ; preds = %lean_inc.exit, %3
  %.023 = phi ptr [ %2, %3 ], [ %56, %lean_inc.exit ]
  %.0 = phi ptr [ %1, %3 ], [ %87, %lean_inc.exit ]
  %7 = ptrtoint ptr %.023 to i64
  %8 = and i64 %7, 1
  %.not.i32 = icmp eq i64 %8, 0
  br i1 %.not.i32, label %12, label %9

9:                                                ; preds = %6
  %10 = lshr i64 %7, 1
  %11 = trunc i64 %10 to i32
  br label %lean_obj_tag.exit

12:                                               ; preds = %6
  %13 = getelementptr i8, ptr %.023, i64 4
  %.val.i = load i32, ptr %13, align 4
  %14 = lshr i32 %.val.i, 24
  br label %lean_obj_tag.exit

lean_obj_tag.exit:                                ; preds = %9, %12
  %.0.i = phi i32 [ %11, %9 ], [ %14, %12 ]
  %15 = icmp eq i32 %.0.i, 0
  br i1 %15, label %16, label %24

16:                                               ; preds = %lean_obj_tag.exit
  br i1 %.not54, label %17, label %lean_dec.exit24

17:                                               ; preds = %16
  %18 = load i32, ptr %0, align 4, !tbaa !4
  %19 = icmp sgt i32 %18, 1
  br i1 %19, label %20, label %22, !prof !9

20:                                               ; preds = %17
  %21 = add nsw i32 %18, -1
  store i32 %21, ptr %0, align 4, !tbaa !4
  br label %lean_dec.exit24

22:                                               ; preds = %17
  %.not.i = icmp eq i32 %18, 0
  br i1 %.not.i, label %lean_dec.exit24, label %23

23:                                               ; preds = %22
  tail call void @lean_dec_ref_cold(ptr noundef nonnull %0) #9
  br label %lean_dec.exit24

lean_dec.exit24:                                  ; preds = %23, %22, %20, %16
  ret ptr %.0

24:                                               ; preds = %lean_obj_tag.exit
  %25 = getelementptr inbounds nuw i8, ptr %.023, i64 8
  %26 = load ptr, ptr %25, align 8, !tbaa !10
  %27 = ptrtoint ptr %26 to i64
  %28 = and i64 %27, 1
  %.not = icmp eq i64 %28, 0
  br i1 %.not, label %29, label %lean_inc.exit29

29:                                               ; preds = %24
  %.val.i33 = load i32, ptr %26, align 4, !tbaa !4
  %30 = icmp sgt i32 %.val.i33, 0
  br i1 %30, label %31, label %33, !prof !9

31:                                               ; preds = %29
  %32 = add nuw i32 %.val.i33, 1
  store i32 %32, ptr %26, align 4, !tbaa !4
  br label %lean_inc.exit29

33:                                               ; preds = %29
  %.not.i34 = icmp eq i32 %.val.i33, 0
  br i1 %.not.i34, label %lean_inc.exit29, label %34

34:                                               ; preds = %33
  tail call void @lean_inc_ref_cold(ptr noundef nonnull %26) #9
  br label %lean_inc.exit29

lean_inc.exit29:                                  ; preds = %34, %33, %31, %24
  %35 = getelementptr inbounds nuw i8, ptr %.023, i64 16
  %36 = load ptr, ptr %35, align 8, !tbaa !10
  %37 = ptrtoint ptr %36 to i64
  %38 = and i64 %37, 1
  %.not50 = icmp eq i64 %38, 0
  br i1 %.not50, label %39, label %lean_inc.exit28

39:                                               ; preds = %lean_inc.exit29
  %.val.i35 = load i32, ptr %36, align 4, !tbaa !4
  %40 = icmp sgt i32 %.val.i35, 0
  br i1 %40, label %41, label %43, !prof !9

41:                                               ; preds = %39
  %42 = add nuw i32 %.val.i35, 1
  store i32 %42, ptr %36, align 4, !tbaa !4
  br label %lean_inc.exit28

43:                                               ; preds = %39
  %.not.i36 = icmp eq i32 %.val.i35, 0
  br i1 %.not.i36, label %lean_inc.exit28, label %44

44:                                               ; preds = %43
  tail call void @lean_inc_ref_cold(ptr noundef nonnull %36) #9
  br label %lean_inc.exit28

lean_inc.exit28:                                  ; preds = %44, %43, %41, %lean_inc.exit29
  %45 = getelementptr inbounds nuw i8, ptr %.023, i64 24
  %46 = load ptr, ptr %45, align 8, !tbaa !10
  %47 = ptrtoint ptr %46 to i64
  %48 = and i64 %47, 1
  %.not51 = icmp eq i64 %48, 0
  br i1 %.not51, label %49, label %lean_inc.exit27

49:                                               ; preds = %lean_inc.exit28
  %.val.i38 = load i32, ptr %46, align 4, !tbaa !4
  %50 = icmp sgt i32 %.val.i38, 0
  br i1 %50, label %51, label %53, !prof !9

51:                                               ; preds = %49
  %52 = add nuw i32 %.val.i38, 1
  store i32 %52, ptr %46, align 4, !tbaa !4
  br label %lean_inc.exit27

53:                                               ; preds = %49
  %.not.i39 = icmp eq i32 %.val.i38, 0
  br i1 %.not.i39, label %lean_inc.exit27, label %54

54:                                               ; preds = %53
  tail call void @lean_inc_ref_cold(ptr noundef nonnull %46) #9
  br label %lean_inc.exit27

lean_inc.exit27:                                  ; preds = %54, %53, %51, %lean_inc.exit28
  %55 = getelementptr inbounds nuw i8, ptr %.023, i64 32
  %56 = load ptr, ptr %55, align 8, !tbaa !10
  %57 = ptrtoint ptr %56 to i64
  %58 = and i64 %57, 1
  %.not52 = icmp eq i64 %58, 0
  br i1 %.not52, label %59, label %lean_inc.exit26

59:                                               ; preds = %lean_inc.exit27
  %.val.i41 = load i32, ptr %56, align 4, !tbaa !4
  %60 = icmp sgt i32 %.val.i41, 0
  br i1 %60, label %61, label %63, !prof !9

61:                                               ; preds = %59
  %62 = add nuw i32 %.val.i41, 1
  store i32 %62, ptr %56, align 4, !tbaa !4
  br label %lean_inc.exit26

63:                                               ; preds = %59
  %.not.i42 = icmp eq i32 %.val.i41, 0
  br i1 %.not.i42, label %lean_inc.exit26, label %64

64:                                               ; preds = %63
  tail call void @lean_inc_ref_cold(ptr noundef nonnull %56) #9
  br label %lean_inc.exit26

lean_inc.exit26:                                  ; preds = %64, %63, %61, %lean_inc.exit27
  br i1 %.not.i32, label %65, label %lean_dec.exit

65:                                               ; preds = %lean_inc.exit26
  %66 = load i32, ptr %.023, align 4, !tbaa !4
  %67 = icmp sgt i32 %66, 1
  br i1 %67, label %68, label %70, !prof !9

68:                                               ; preds = %65
  %69 = add nsw i32 %66, -1
  store i32 %69, ptr %.023, align 4, !tbaa !4
  br label %lean_dec.exit

70:                                               ; preds = %65
  %.not.i30 = icmp eq i32 %66, 0
  br i1 %.not.i30, label %lean_dec.exit, label %71

71:                                               ; preds = %70
  tail call void @lean_dec_ref_cold(ptr noundef nonnull %.023) #9
  br label %lean_dec.exit

lean_dec.exit:                                    ; preds = %71, %70, %68, %lean_inc.exit26
  br i1 %.not54, label %72, label %lean_inc.exit25

72:                                               ; preds = %lean_dec.exit
  %.val.i44 = load i32, ptr %0, align 4, !tbaa !4
  %73 = icmp sgt i32 %.val.i44, 0
  br i1 %73, label %74, label %76, !prof !9

74:                                               ; preds = %72
  %75 = add nuw i32 %.val.i44, 1
  store i32 %75, ptr %0, align 4, !tbaa !4
  br label %79

76:                                               ; preds = %72
  %.not.i45 = icmp eq i32 %.val.i44, 0
  br i1 %.not.i45, label %79, label %77

77:                                               ; preds = %76
  tail call void @lean_inc_ref_cold(ptr noundef nonnull %0) #9
  br label %79

lean_inc.exit25:                                  ; preds = %lean_dec.exit
  %78 = tail call ptr @l_Lean_RBNode_fold___rarg(ptr noundef %0, ptr noundef %.0, ptr noundef %26)
  br label %lean_inc.exit

79:                                               ; preds = %77, %76, %74
  %80 = tail call ptr @l_Lean_RBNode_fold___rarg(ptr noundef nonnull %0, ptr noundef %.0, ptr noundef %26)
  %.val.i47 = load i32, ptr %0, align 4, !tbaa !4
  %81 = icmp sgt i32 %.val.i47, 0
  br i1 %81, label %82, label %84, !prof !9

82:                                               ; preds = %79
  %83 = add nuw i32 %.val.i47, 1
  store i32 %83, ptr %0, align 4, !tbaa !4
  br label %lean_inc.exit

84:                                               ; preds = %79
  %.not.i48 = icmp eq i32 %.val.i47, 0
  br i1 %.not.i48, label %lean_inc.exit, label %85

85:                                               ; preds = %84
  tail call void @lean_inc_ref_cold(ptr noundef nonnull %0) #9
  br label %lean_inc.exit

lean_inc.exit:                                    ; preds = %85, %84, %82, %lean_inc.exit25
  %86 = phi ptr [ %78, %lean_inc.exit25 ], [ %80, %82 ], [ %80, %84 ], [ %80, %85 ]
  %87 = tail call ptr @lean_apply_3(ptr noundef %0, ptr noundef %86, ptr noundef %36, ptr noundef %46) #9
  br label %6
}